target datalayout = "e-m:e-p270:32:32-p271:32:32-p272:64:64-i64:64-i128:128-f80:128-n8:16:32:64-S128"
target triple = "x86_64-pc-linux-gnu"

%union.ufmt_args = type { i64 }
%struct.u_scanf_spec_info = type { i32, i16, i16, i8, i8, i8, i8, i8, i8 }

; Function Attrs: mustprogress uwtable
define internal noundef i32 @_ZL23u_scanf_skip_leading_wsP5UFILEDs(ptr noundef %0, i16 noundef zeroext %1) #0 {
  %3 = alloca ptr, align 8
  %4 = alloca i16, align 2
  %5 = alloca i16, align 2
  %6 = alloca i32, align 4
  %7 = alloca i8, align 1
  store ptr %0, ptr %3, align 8, !tbaa !3
  store i16 %1, ptr %4, align 2, !tbaa !14
  call void @llvm.lifetime.start.p0(i64 2, ptr %5) #5
  call void @llvm.lifetime.start.p0(i64 4, ptr %6) #5
  store i32 0, ptr %6, align 4, !tbaa !12
  call void @llvm.lifetime.start.p0(i64 1, ptr %7) #5
  br label %8

8:                                                ; preds = %28, %2
  %9 = load ptr, ptr %3, align 8, !tbaa !3
  %10 = call signext i8 @ufile_getch_77(ptr noundef %9, ptr noundef %5)
  store i8 %10, ptr %7, align 1, !tbaa !28
  %11 = sext i8 %10 to i32
  %12 = icmp eq i32 %11, 1
  br i1 %12, label %13, label %26

13:                                               ; preds = %8
  %14 = load i16, ptr %5, align 2, !tbaa !14
  %15 = zext i16 %14 to i32
  %16 = load i16, ptr %4, align 2, !tbaa !14
  %17 = zext i16 %16 to i32
  %18 = icmp eq i32 %15, %17
  br i1 %18, label %24, label %19

19:                                               ; preds = %13
  %20 = load i16, ptr %5, align 2, !tbaa !14
  %21 = zext i16 %20 to i32
  %22 = call signext i8 @u_isWhitespace_77(i32 noundef %21)
  %23 = icmp ne i8 %22, 0
  br label %24

24:                                               ; preds = %19, %13
  %25 = phi i1 [ true, %13 ], [ %23, %19 ]
  br label %26

26:                                               ; preds = %24, %8
  %27 = phi i1 [ false, %8 ], [ %25, %24 ]
  br i1 %27, label %28, label %31

28:                                               ; preds = %26
  %29 = load i32, ptr %6, align 4, !tbaa !12
  %30 = add nsw i32 %29, 1
  store i32 %30, ptr %6, align 4, !tbaa !12
  br label %8, !llvm.loop !82

31:                                               ; preds = %26
  %32 = load i8, ptr %7, align 1, !tbaa !28
  %33 = icmp ne i8 %32, 0
  br i1 %33, label %34, label %39

34:                                               ; preds = %31
  %35 = load i16, ptr %5, align 2, !tbaa !14
  %36 = zext i16 %35 to i32
  %37 = load ptr, ptr %3, align 8, !tbaa !3
  %38 = call i32 @u_fungetc_77(i32 noundef %36, ptr noundef %37)
  br label %39

39:                                               ; preds = %34, %31
  %40 = load i32, ptr %6, align 4, !tbaa !12
  call void @llvm.lifetime.end.p0(i64 1, ptr %7) #5
  call void @llvm.lifetime.end.p0(i64 4, ptr %6) #5
  call void @llvm.lifetime.end.p0(i64 2, ptr %5) #5
  ret i32 %40
}

; Function Attrs: mustprogress uwtable
define internal noundef i32 @_ZL23u_scanf_ustring_handlerP5UFILEP17u_scanf_spec_infoP9ufmt_argsPKDsPiS7_(ptr noundef %0, ptr noundef %1, ptr noundef %2, ptr noundef %3, ptr noundef %4, ptr noundef %5) #0 {
  %7 = alloca ptr, align 8
  %8 = alloca ptr, align 8
  %9 = alloca ptr, align 8
  %10 = alloca ptr, align 8
  %11 = alloca ptr, align 8
  %12 = alloca ptr, align 8
  %13 = alloca ptr, align 8
  %14 = alloca ptr, align 8
  %15 = alloca i32, align 4
  %16 = alloca i32, align 4
  %17 = alloca i16, align 2
  %18 = alloca i8, align 1
  store ptr %0, ptr %7, align 8, !tbaa !3
  store ptr %1, ptr %8, align 8, !tbaa !35
  store ptr %2, ptr %9, align 8, !tbaa !50
  store ptr %3, ptr %10, align 8, !tbaa !8
  store ptr %4, ptr %11, align 8, !tbaa !52
  store ptr %5, ptr %12, align 8, !tbaa !52
  call void @llvm.lifetime.start.p0(i64 8, ptr %13) #5
  %19 = load ptr, ptr %9, align 8, !tbaa !50
  %20 = getelementptr inbounds %union.ufmt_args, ptr %19, i64 0
  %21 = load ptr, ptr %20, align 8, !tbaa !28
  store ptr %21, ptr %13, align 8, !tbaa !8
  call void @llvm.lifetime.start.p0(i64 8, ptr %14) #5
  %22 = load ptr, ptr %13, align 8, !tbaa !8
  store ptr %22, ptr %14, align 8, !tbaa !8
  call void @llvm.lifetime.start.p0(i64 4, ptr %15) #5
  call void @llvm.lifetime.start.p0(i64 4, ptr %16) #5
  store i32 0, ptr %16, align 4, !tbaa !12
  call void @llvm.lifetime.start.p0(i64 2, ptr %17) #5
  call void @llvm.lifetime.start.p0(i64 1, ptr %18) #5
  store i8 0, ptr %18, align 1, !tbaa !28
  %23 = load ptr, ptr %8, align 8, !tbaa !35
  %24 = getelementptr inbounds nuw %struct.u_scanf_spec_info, ptr %23, i32 0, i32 8
  %25 = load i8, ptr %24, align 1, !tbaa !46
  %26 = icmp ne i8 %25, 0
  br i1 %26, label %27, label %33

27:                                               ; preds = %6
  %28 = load ptr, ptr %7, align 8, !tbaa !3
  %29 = load ptr, ptr %8, align 8, !tbaa !35
  %30 = getelementptr inbounds nuw %struct.u_scanf_spec_info, ptr %29, i32 0, i32 2
  %31 = load i16, ptr %30, align 2, !tbaa !40
  %32 = call noundef i32 @_ZL23u_scanf_skip_leading_wsP5UFILEDs(ptr noundef %28, i16 noundef zeroext %31)
  store i32 %32, ptr %16, align 4, !tbaa !12
  br label %33

33:                                               ; preds = %27, %6
  store i32 0, ptr %15, align 4, !tbaa !12
  br label %34

34:                                               ; preds = %84, %33
  %35 = load ptr, ptr %8, align 8, !tbaa !35
  %36 = getelementptr inbounds nuw %struct.u_scanf_spec_info, ptr %35, i32 0, i32 0
  %37 = load i32, ptr %36, align 4, !tbaa !38
  %38 = icmp eq i32 %37, -1
  br i1 %38, label %45, label %39

39:                                               ; preds = %34
  %40 = load i32, ptr %15, align 4, !tbaa !12
  %41 = load ptr, ptr %8, align 8, !tbaa !35
  %42 = getelementptr inbounds nuw %struct.u_scanf_spec_info, ptr %41, i32 0, i32 0
  %43 = load i32, ptr %42, align 4, !tbaa !38
  %44 = icmp slt i32 %40, %43
  br i1 %44, label %45, label %73

45:                                               ; preds = %39, %34
  %46 = load ptr, ptr %7, align 8, !tbaa !3
  %47 = call signext i8 @ufile_getch_77(ptr noundef %46, ptr noundef %17)
  store i8 %47, ptr %18, align 1, !tbaa !28
  %48 = sext i8 %47 to i32
  %49 = icmp eq i32 %48, 1
  br i1 %49, label %50, label %73

50:                                               ; preds = %45
  %51 = load ptr, ptr %8, align 8, !tbaa !35
  %52 = getelementptr inbounds nuw %struct.u_scanf_spec_info, ptr %51, i32 0, i32 8
  %53 = load i8, ptr %52, align 1, !tbaa !46
  %54 = icmp ne i8 %53, 0
  br i1 %54, label %55, label %71

55:                                               ; preds = %50
  %56 = load i16, ptr %17, align 2, !tbaa !14
  %57 = zext i16 %56 to i32
  %58 = load ptr, ptr %8, align 8, !tbaa !35
  %59 = getelementptr inbounds nuw %struct.u_scanf_spec_info, ptr %58, i32 0, i32 2
  %60 = load i16, ptr %59, align 2, !tbaa !40
  %61 = zext i16 %60 to i32
  %62 = icmp ne i32 %57, %61
  br i1 %62, label %63, label %69

63:                                               ; preds = %55
  %64 = load i16, ptr %17, align 2, !tbaa !14
  %65 = zext i16 %64 to i32
  %66 = call signext i8 @u_isWhitespace_77(i32 noundef %65)
  %67 = icmp ne i8 %66, 0
  %68 = xor i1 %67, true
  br label %69

69:                                               ; preds = %63, %55
  %70 = phi i1 [ false, %55 ], [ %68, %63 ]
  br label %71

71:                                               ; preds = %69, %50
  %72 = phi i1 [ true, %50 ], [ %70, %69 ]
  br label %73

73:                                               ; preds = %71, %45, %39
  %74 = phi i1 [ false, %45 ], [ false, %39 ], [ %72, %71 ]
  br i1 %74, label %75, label %87

75:                                               ; preds = %73
  %76 = load ptr, ptr %8, align 8, !tbaa !35
  %77 = getelementptr inbounds nuw %struct.u_scanf_spec_info, ptr %76, i32 0, i32 3
  %78 = load i8, ptr %77, align 4, !tbaa !41
  %79 = icmp ne i8 %78, 0
  br i1 %79, label %84, label %80

80:                                               ; preds = %75
  %81 = load i16, ptr %17, align 2, !tbaa !14
  %82 = load ptr, ptr %14, align 8, !tbaa !8
  %83 = getelementptr inbounds nuw i16, ptr %82, i32 1
  store ptr %83, ptr %14, align 8, !tbaa !8
  store i16 %81, ptr %82, align 2, !tbaa !14
  br label %84

84:                                               ; preds = %80, %75
  %85 = load i32, ptr %15, align 4, !tbaa !12
  %86 = add nsw i32 %85, 1
  store i32 %86, ptr %15, align 4, !tbaa !12
  br label %34, !llvm.loop !73

87:                                               ; preds = %73
  %88 = load ptr, ptr %8, align 8, !tbaa !35
  %89 = getelementptr inbounds nuw %struct.u_scanf_spec_info, ptr %88, i32 0, i32 3
  %90 = load i8, ptr %89, align 4, !tbaa !41
  %91 = icmp ne i8 %90, 0
  br i1 %91, label %119, label %92

92:                                               ; preds = %87
  %93 = load ptr, ptr %8, align 8, !tbaa !35
  %94 = getelementptr inbounds nuw %struct.u_scanf_spec_info, ptr %93, i32 0, i32 0
  %95 = load i32, ptr %94, align 4, !tbaa !38
  %96 = icmp eq i32 %95, -1
  br i1 %96, label %103, label %97

97:                                               ; preds = %92
  %98 = load i32, ptr %15, align 4, !tbaa !12
  %99 = load ptr, ptr %8, align 8, !tbaa !35
  %100 = getelementptr inbounds nuw %struct.u_scanf_spec_info, ptr %99, i32 0, i32 0
  %101 = load i32, ptr %100, align 4, !tbaa !38
  %102 = icmp slt i32 %98, %101
  br i1 %102, label %103, label %111

103:                                              ; preds = %97, %92
  %104 = load i8, ptr %18, align 1, !tbaa !28
  %105 = icmp ne i8 %104, 0
  br i1 %105, label %106, label %111

106:                                              ; preds = %103
  %107 = load i16, ptr %17, align 2, !tbaa !14
  %108 = zext i16 %107 to i32
  %109 = load ptr, ptr %7, align 8, !tbaa !3
  %110 = call i32 @u_fungetc_77(i32 noundef %108, ptr noundef %109)
  br label %111

111:                                              ; preds = %106, %103, %97
  %112 = load ptr, ptr %8, align 8, !tbaa !35
  %113 = getelementptr inbounds nuw %struct.u_scanf_spec_info, ptr %112, i32 0, i32 8
  %114 = load i8, ptr %113, align 1, !tbaa !46
  %115 = icmp ne i8 %114, 0
  br i1 %115, label %116, label %118

116:                                              ; preds = %111
  %117 = load ptr, ptr %14, align 8, !tbaa !8
  store i16 0, ptr %117, align 2, !tbaa !14
  br label %118

118:                                              ; preds = %116, %111
  br label %119

119:                                              ; preds = %118, %87
  %120 = load ptr, ptr %8, align 8, !tbaa !35
  %121 = getelementptr inbounds nuw %struct.u_scanf_spec_info, ptr %120, i32 0, i32 3
  %122 = load i8, ptr %121, align 4, !tbaa !41
  %123 = icmp ne i8 %122, 0
  %124 = xor i1 %123, true
  %125 = zext i1 %124 to i32
  %126 = load ptr, ptr %12, align 8, !tbaa !52
  store i32 %125, ptr %126, align 4, !tbaa !12
  %127 = load i32, ptr %15, align 4, !tbaa !12
  %128 = load i32, ptr %16, align 4, !tbaa !12
  %129 = add nsw i32 %127, %128
  call void @llvm.lifetime.end.p0(i64 1, ptr %18) #5
  call void @llvm.lifetime.end.p0(i64 2, ptr %17) #5
  call void @llvm.lifetime.end.p0(i64 4, ptr %16) #5
  call void @llvm.lifetime.end.p0(i64 4, ptr %15) #5
  call void @llvm.lifetime.end.p0(i64 8, ptr %14) #5
  call void @llvm.lifetime.end.p0(i64 8, ptr %13) #5
  ret i32 %129
}