; Function Attrs: mustprogress uwtable
define internal noundef i32 @_ZL23u_scanf_ustring_handlerP5UFILEP17u_scanf_spec_infoP9ufmt_argsPKDsPiS7_(ptr noundef %0, ptr noundef readonly captures(none) %1, ptr noundef readonly captures(none) %2, ptr readnone captures(none) %3, ptr readnone captures(none) %4, ptr noundef writeonly captures(none) %5) #0 {
  %7 = alloca i16, align 2
  %8 = alloca i16, align 2
  %9 = load ptr, ptr %2, align 8, !tbaa !33
  call void @llvm.lifetime.start.p0(i64 2, ptr nonnull %8) #6
  %10 = getelementptr inbounds nuw i8, ptr %1, i64 13
  %11 = load i8, ptr %10, align 1, !tbaa !17
  %.not = icmp eq i8 %11, 0
  br i1 %.not, label %27, label %12

12:                                               ; preds = %6
  %13 = getelementptr inbounds nuw i8, ptr %1, i64 6
  %14 = load i16, ptr %13, align 2, !tbaa !16
  call void @llvm.lifetime.start.p0(i64 2, ptr nonnull %7) #6
  br label %15

15:                                               ; preds = %.critedge2.i, %12
  %.0.i = phi i32 [ 0, %12 ], [ %23, %.critedge2.i ]
  %16 = call signext i8 @ufile_getch_77(ptr noundef %0, ptr noundef nonnull %7)
  switch i8 %16, label %.critedge.i [
    i8 1, label %17
    i8 0, label %_ZL23u_scanf_skip_leading_wsP5UFILEDs.exit
  ]

17:                                               ; preds = %15
  %18 = load i16, ptr %7, align 2, !tbaa !7
  %19 = icmp eq i16 %18, %14
  br i1 %19, label %.critedge2.i, label %20

20:                                               ; preds = %17
  %21 = zext i16 %18 to i32
  %22 = call signext i8 @u_isWhitespace_77(i32 noundef %21)
  %.not.i = icmp eq i8 %22, 0
  br i1 %.not.i, label %.critedge.i, label %.critedge2.i

.critedge2.i:                                     ; preds = %20, %17
  %23 = add nuw nsw i32 %.0.i, 1
  br label %15, !llvm.loop !38

.critedge.i:                                      ; preds = %20, %15
  %24 = load i16, ptr %7, align 2, !tbaa !7
  %25 = zext i16 %24 to i32
  %26 = call i32 @u_fungetc_77(i32 noundef %25, ptr noundef %0)
  br label %_ZL23u_scanf_skip_leading_wsP5UFILEDs.exit

_ZL23u_scanf_skip_leading_wsP5UFILEDs.exit:       ; preds = %15, %.critedge.i
  call void @llvm.lifetime.end.p0(i64 2, ptr nonnull %7) #6
  br label %27

27:                                               ; preds = %_ZL23u_scanf_skip_leading_wsP5UFILEDs.exit, %6
  %.029 = phi i32 [ %.0.i, %_ZL23u_scanf_skip_leading_wsP5UFILEDs.exit ], [ 0, %6 ]
  %28 = load i32, ptr %1, align 4, !tbaa !14
  %29 = icmp eq i32 %28, -1
  %30 = icmp sgt i32 %28, 0
  %or.cond4346 = or i1 %29, %30
  br i1 %or.cond4346, label %.lr.ph, label %.critedge

.lr.ph:                                           ; preds = %27
  %31 = getelementptr inbounds nuw i8, ptr %1, i64 6
  %32 = getelementptr inbounds nuw i8, ptr %1, i64 8
  br label %33

33:                                               ; preds = %.lr.ph, %48
  %.03048 = phi i32 [ 0, %.lr.ph ], [ %49, %48 ]
  %.03147 = phi ptr [ %9, %.lr.ph ], [ %.132, %48 ]
  %34 = call signext i8 @ufile_getch_77(ptr noundef %0, ptr noundef nonnull %8)
  %35 = icmp eq i8 %34, 1
  br i1 %35, label %36, label %.critedge

36:                                               ; preds = %33
  %37 = load i8, ptr %10, align 1, !tbaa !17
  %.not36 = icmp eq i8 %37, 0
  br i1 %.not36, label %.critedge2, label %38

38:                                               ; preds = %36
  %39 = load i16, ptr %8, align 2, !tbaa !7
  %40 = load i16, ptr %31, align 2, !tbaa !16
  %.not37 = icmp eq i16 %39, %40
  br i1 %.not37, label %.critedge, label %41

41:                                               ; preds = %38
  %42 = zext i16 %39 to i32
  %43 = call signext i8 @u_isWhitespace_77(i32 noundef %42)
  %.not38 = icmp eq i8 %43, 0
  br i1 %.not38, label %.critedge2, label %.critedge

.critedge2:                                       ; preds = %36, %41
  %44 = load i8, ptr %32, align 4, !tbaa !19
  %.not42 = icmp eq i8 %44, 0
  br i1 %.not42, label %45, label %48

45:                                               ; preds = %.critedge2
  %46 = load i16, ptr %8, align 2, !tbaa !7
  %47 = getelementptr inbounds nuw i8, ptr %.03147, i64 2
  store i16 %46, ptr %.03147, align 2, !tbaa !7
  br label %48

48:                                               ; preds = %45, %.critedge2
  %.132 = phi ptr [ %.03147, %.critedge2 ], [ %47, %45 ]
  %49 = add nuw nsw i32 %.03048, 1
  %50 = load i32, ptr %1, align 4, !tbaa !14
  %51 = icmp eq i32 %50, -1
  %52 = icmp slt i32 %49, %50
  %or.cond43 = select i1 %51, i1 true, i1 %52
  br i1 %or.cond43, label %33, label %.critedge, !llvm.loop !55

.critedge:                                        ; preds = %41, %38, %33, %48, %27
  %.031.lcssa = phi ptr [ %9, %27 ], [ %.132, %48 ], [ %.03147, %33 ], [ %.03147, %38 ], [ %.03147, %41 ]
  %.030.lcssa = phi i32 [ 0, %27 ], [ %49, %48 ], [ %.03048, %33 ], [ %.03048, %38 ], [ %.03048, %41 ]
  %.1 = phi i8 [ 0, %27 ], [ 1, %48 ], [ %34, %33 ], [ 1, %38 ], [ 1, %41 ]
  %53 = getelementptr inbounds nuw i8, ptr %1, i64 8
  %54 = load i8, ptr %53, align 4, !tbaa !19
  %.not39 = icmp eq i8 %54, 0
  br i1 %.not39, label %55, label %69

55:                                               ; preds = %.critedge
  %56 = load i32, ptr %1, align 4, !tbaa !14
  %57 = icmp eq i32 %56, -1
  br i1 %57, label %61, label %58

58:                                               ; preds = %55
  %59 = icmp slt i32 %.030.lcssa, %56
  %60 = icmp ne i8 %.1, 0
  %or.cond = and i1 %60, %59
  br i1 %or.cond, label %62, label %66

61:                                               ; preds = %55
  %.old3.not = icmp eq i8 %.1, 0
  br i1 %.old3.not, label %66, label %62

62:                                               ; preds = %58, %61
  %63 = load i16, ptr %8, align 2, !tbaa !7
  %64 = zext i16 %63 to i32
  %65 = call i32 @u_fungetc_77(i32 noundef %64, ptr noundef %0)
  br label %66

66:                                               ; preds = %62, %61, %58
  %67 = load i8, ptr %10, align 1, !tbaa !17
  %.not40 = icmp eq i8 %67, 0
  br i1 %.not40, label %69, label %68

68:                                               ; preds = %66
  store i16 0, ptr %.031.lcssa, align 2, !tbaa !7
  br label %69

69:                                               ; preds = %66, %68, %.critedge
  %70 = load i8, ptr %53, align 4, !tbaa !19
  %.not41 = icmp eq i8 %70, 0
  %71 = zext i1 %.not41 to i32
  store i32 %71, ptr %5, align 4, !tbaa !3
  %72 = add nuw nsw i32 %.030.lcssa, %.029
  call void @llvm.lifetime.end.p0(i64 2, ptr nonnull %8) #6
  ret i32 %72
}